(lp0
S'#CharlestonShooting'
p1
aS'#NoTeEnvioUnWhatsAppPorque'
p2
aS'#\xd8\xae\xd9\x88\xd8\xa7\xd8\xb7\xd8\xb111'
p3
aS'#MTVBattleFifthHarmony'
p4
aS'#AskAmell'
p5
aS'Confederate'
p6
aS'Paul McCartney'
p7
aS'F\xc3\xa1bio Martins'
p8
aS'Sel\xc3\xa7uk \xc5\x9eahin'
p9
aS'Nikki Haley'
p10
a.